Certificate:
    Data:
        Version: 1 (0x0)
        Serial Number: 1 (0x1)
        Signature Algorithm: md5WithRSAEncryption
        Issuer: O=TestOrg, OU=TestDepartment, CN=TestCA/emailAddress=ca_admin@yahoo.com.com
        Validity
            Not Before: Jan  1 05:28:58 2008 GMT
            Not After : Dec 31 05:28:58 2009 GMT
        Subject: C=CN, O=SONIX, OU=APP, CN=172.21.2.134/emailAddress=uestc_gl@yahoo.com.cn
        Subject Public Key Info:
            Public Key Algorithm: rsaEncryption
            RSA Public Key: (1024 bit)
                Modulus (1024 bit):
                    00:d2:62:14:4a:68:eb:ee:30:67:14:4a:68:a0:68:
                    d9:85:10:71:09:8f:99:b0:61:13:a2:91:3e:52:5f:
                    62:0c:49:d1:51:8a:2b:5e:1e:dd:c4:7e:73:ca:05:
                    55:b1:de:91:41:55:8b:ab:4f:6d:b5:34:79:91:57:
                    9f:d6:00:52:0f:05:d3:ea:4f:65:9a:a2:f8:77:1e:
                    3d:7b:9e:aa:50:97:31:01:10:e8:ce:02:c9:70:e5:
                    37:6a:97:e6:63:ee:5d:e0:1b:6f:b5:ed:e4:9c:67:
                    12:51:b9:47:a5:e5:75:4b:2b:ac:af:ee:5e:0a:f8:
                    c4:c4:c9:8a:95:ec:e4:85:e1
                Exponent: 65537 (0x10001)
    Signature Algorithm: md5WithRSAEncryption
        0e:7a:cf:f4:a3:23:68:09:63:ad:3a:81:16:ef:a0:6b:d4:bf:
        47:c6:f3:34:78:4b:28:67:e3:e9:88:6b:c4:91:4f:5f:d3:09:
        f5:e1:16:b8:e1:82:97:0a:93:4e:ce:88:8a:4f:f9:b9:19:0f:
        92:a1:e6:bd:b4:9f:24:dc:da:d3:c7:40:ca:fb:3f:6f:f0:1a:
        fc:16:45:36:86:cf:a5:da:25:be:f8:4b:3b:73:4e:93:0d:f7:
        c7:f1:2f:08:9e:35:70:10:13:58:59:21:e5:0a:47:0f:25:84:
        a0:97:1e:43:52:e2:b4:6d:77:98:7b:44:e3:db:61:a0:c3:cc:
        1d:8f:b5:84:36:76:d3:3d:ab:f2:f8:0a:60:57:3c:fa:96:2f:
        f5:74:22:97:54:49:e4:02:ce:41:13:c8:8d:f8:f0:bf:ed:94:
        fb:6b:c4:ff:d5:40:57:d8:02:96:a3:06:68:d5:0e:bb:20:7c:
        91:0c:ec:46:e6:7a:71:d3:20:ca:1f:9a:ea:10:d1:7b:62:4f:
        7d:fd:18:41:7e:eb:92:db:46:94:87:d0:9e:19:45:d0:16:05:
        da:c6:60:09:98:48:84:b2:7f:bf:1f:99:e9:f8:3a:32:81:d6:
        70:59:bf:45:12:83:c4:97:ca:dc:57:6a:aa:91:57:ad:26:34:
        09:32:bd:32
-----BEGIN CERTIFICATE-----
MIICuzCCAaMCAQEwDQYJKoZIhvcNAQEEBQAwYzEQMA4GA1UEChMHVGVzdE9yZzEX
MBUGA1UECxMOVGVzdERlcGFydG1lbnQxDzANBgNVBAMTBlRlc3RDQTElMCMGCSqG
SIb3DQEJARYWY2FfYWRtaW5AeWFob28uY29tLmNvbTAeFw0wODAxMDEwNTI4NTha
Fw0wOTEyMzEwNTI4NThaMGgxCzAJBgNVBAYTAkNOMQ4wDAYDVQQKEwVTT05JWDEM
MAoGA1UECxMDQVBQMRUwEwYDVQQDEwwxNzIuMjEuMi4xMzQxJDAiBgkqhkiG9w0B
CQEWFXVlc3RjX2dsQHlhaG9vLmNvbS5jbjCBnzANBgkqhkiG9w0BAQEFAAOBjQAw
gYkCgYEA0mIUSmjr7jBnFEpooGjZhRBxCY+ZsGETopE+Ul9iDEnRUYorXh7dxH5z
ygVVsd6RQVWLq09ttTR5kVef1gBSDwXT6k9lmqL4dx49e56qUJcxARDozgLJcOU3
apfmY+5d4Btvte3knGcSUblHpeV1Syusr+5eCvjExMmKlezkheECAwEAATANBgkq
hkiG9w0BAQQFAAOCAQEADnrP9KMjaAljrTqBFu+ga9S/R8bzNHhLKGfj6YhrxJFP
X9MJ9eEWuOGClwqTTs6Iik/5uRkPkqHmvbSfJNza08dAyvs/b/Aa/BZFNobPpdol
vvhLO3NOkw33x/EvCJ41cBATWFkh5QpHDyWEoJceQ1LitG13mHtE49thoMPMHY+1
hDZ20z2r8vgKYFc8+pYv9XQil1RJ5ALOQRPIjfjwv+2U+2vE/9VAV9gClqMGaNUO
uyB8kQzsRuZ6cdMgyh+a6hDRe2JPff0YQX7rkttGlIfQnhlF0BYF2sZgCZhIhLJ/
vx+Z6fg6MoHWcFm/RRKDxJfK3FdqqpFXrSY0CTK9Mg==
-----END CERTIFICATE-----
